(lp0
(lp1
I0
aI53250
aI53251
aI53252
aI53253
aI6159
aI16388
aI24608
aI71714
aI47151
aI71731
aI71732
aI16443
aI38581
aI75842
aI26691
aI75870
aI75871
aI30818
aI36963
aI75876
aI75877
aI75878
aI41076
aI52590
aI24726
aI63175
aI56745
aI12498
aI14558
aI55522
aI55523
aI14577
aI10493
aI49878
aI61702
aI61703
aI41238
aI33047
aI33048
aI33049
aI33050
aI33051
aI33052
aI33053
aI33054
aI33055
aI33056
aI33057
aI65840
aI45361
aI41275
aI41276
aI41277
aI41278
aI41279
aI41280
aI41281
aI53570
aI53571
aI53574
aI33098
aI31054
aI75149
aI59740
aI59741
aI59742
aI20833
aI55666
aI6523
aI4482
aI31111
aI39308
aI70039
aI53681
aI53682
aI11744
aI51640
aI4537
aI55739
aI55740
aI4544
aI63941
aI55796
aI55799
aI55800
aI55801
aI68091
aI68092
aI37375
aI10760
aI8714
aI41494
aI28080
aI35364
aI61991
aI27058
aI21941
aI56759
aI8780
aI41552
aI75192
aI75875
aI75193
aI45156
aI31050
aI790
aI68241
aI35482
aI35483
aI35484
aI35485
aI35486
aI35487
aI35488
aI8866
aI37539
aI68260
aI72359
aI35505
aI72375
aI699
aI37565
aI49856
aI52684
aI49876
aI49877
aI726
aI49879
aI15071
aI1490
aI41711
aI10992
aI75219
aI75221
aI29462
aI19929
aI799
aI6946
aI41764
aI66346
aI13101
aI60209
aI52026
aI33595
aI74560
aI75232
aI17230
aI74580
aI21341
aI45923
aI45924
aI45925
aI45926
aI45927
aI45928
aI45929
aI45930
aI45931
aI45932
aI54125
aI54126
aI54128
aI54130
aI54131
aI54133
aI9086
aI41858
aI48005
aI37767
aI46572
aI906
aI21388
aI46573
aI41874
aI46574
aI35739
aI35740
aI35741
aI35742
aI35743
aI35744
aI35745
aI35746
aI35747
aI35748
aI35749
aI35750
aI35751
aI35752
aI23465
aI54186
aI16199
aI54188
aI54189
aI27570
aI56257
aI7113
aI66508
aI27470
aI54180
aI23525
aI15335
aI16892
aI19434
aI33771
aI68590
aI54181
aI1028
aI56833
aI39944
aI23568
aI19473
aI60448
aI33835
aI42049
aI21570
aI17483
aI37968
aI54184
aI68710
aI68711
aI68713
aI64619
aI19580
aI54122
aI58498
aI54124
aI48270
aI40082
aI21668
aI15528
aI54443
aI68780
aI54456
aI54457
aI5306
aI34337
aI54490
aI54491
aI25828
aI19693
aI68850
aI13562
aI68863
aI25860
aI9477
aI52690
aI13591
aI13592
aI9503
aI5680
aI68904
aI68905
aI13625
aI50492
aI68934
aI68935
aI40278
aI54638
aI50548
aI75143
aI75144
aI75145
aI75146
aI75147
aI75148
aI25997
aI75150
aI75151
aI75152
aI75153
aI75154
aI75155
aI75156
aI75157
aI75158
aI75159
aI75160
aI75161
aI75162
aI75163
aI75164
aI75165
aI75166
aI75167
aI75168
aI75169
aI75170
aI75171
aI75172
aI75173
aI75174
aI75175
aI75176
aI75177
aI75178
aI75179
aI75180
aI75181
aI75182
aI75183
aI75184
aI75185
aI75186
aI75187
aI75188
aI75189
aI75190
aI75191
aI56760
aI7609
aI75194
aI75195
aI75196
aI75197
aI75198
aI75199
aI75200
aI75201
aI75202
aI75203
aI75204
aI75205
aI75206
aI75207
aI75208
aI75209
aI75210
aI75211
aI75212
aI75213
aI75214
aI75215
aI75216
aI75217
aI75218
aI15827
aI75220
aI15829
aI75222
aI75223
aI75224
aI75225
aI75226
aI75227
aI75228
aI75229
aI75230
aI75231
aI73184
aI75233
aI54182
aI54183
aI65004
aI65005
aI65006
aI65007
aI41896
aI54185
aI52728
aI50685
aI50686
aI50687
aI50688
aI50689
aI50690
aI54187
aI26117
aI56851
aI62998
aI60676
aI34335
aI52769
aI52772
aI54821
aI42534
aI38448
aI42548
aI44980
aI17984
aI67142
aI48714
aI58978
aI67512
aI15957
aI36440
aI36441
aI26210
aI58979
aI58980
aI58981
aI58982
aI58983
aI58984
aI58985
aI58986
aI22123
aI67193
aI28282
aI42622
aI37563
aI49089
aI59016
aI59017
aI59671
aI5773
aI65191
aI24232
aI28337
aI40628
aI40629
aI40630
aI40631
aI40632
aI40633
aI40634
aI22815
aI63172
aI63173
aI61126
aI61127
aI61128
aI61129
aI71630
aI56953
aI56954
aI71399
aI71402
aI71403
aI12022
aI71418
aI71423
aI48926
aI30513
aI14131
aI48950
aI20295
aI20299
aI3922
aI46934
aI22359
aI22364
aI25573
aI71530
aI71544
aI22412
aI41282
aI51095
aI65442
aI38823
aI18345
aI71601
aI71602
aI71603
aI71604
aI71605
aI71606
aI71607
aI71608
aI71609
aI71610
aI71611
aI71612
aI71613
aI71614
aI71615
aI71616
aI71617
aI71618
aI71619
aI71620
aI71621
aI71622
aI71623
aI71624
aI71625
aI71626
aI71627
aI71628
aI71629
aI12238
aI71631
aI71632
aI71633
aI71634
aI55251
aI39246
aI47098
aI4069
aI12262
aI71655
aI67563
aI26605
aI32424
aI12276
aI12279
aI36858
aI16379
aI47100
aa(lp2
(I0
I799
tp3
a(I699
I13591
tp4
a(I699
I13592
tp5
a(I726
I13101
tp6
a(I790
I71403
tp7
a(I799
I726
tp8
a(I906
I10992
tp9
a(I906
I15827
tp10
a(I1028
I71402
tp11
a(I1490
I20295
tp12
a(I1490
I20299
tp13
a(I3922
I790
tp14
a(I3922
I4544
tp15
a(I3922
I33047
tp16
a(I3922
I33048
tp17
a(I3922
I33049
tp18
a(I3922
I33050
tp19
a(I3922
I33051
tp20
a(I3922
I33052
tp21
a(I3922
I33053
tp22
a(I3922
I33054
tp23
a(I3922
I33055
tp24
a(I3922
I33056
tp25
a(I3922
I33057
tp26
a(I4069
I790
tp27
a(I4069
I13562
tp28
a(I4482
I790
tp29
a(I4482
I35482
tp30
a(I4482
I35483
tp31
a(I4482
I35484
tp32
a(I4482
I35485
tp33
a(I4482
I35486
tp34
a(I4482
I35487
tp35
a(I4537
I790
tp36
a(I4537
I27470
tp37
a(I4544
I0
tp38
a(I4544
I790
tp39
a(I4544
I17984
tp40
a(I4544
I35739
tp41
a(I4544
I35740
tp42
a(I4544
I35741
tp43
a(I4544
I35742
tp44
a(I4544
I35743
tp45
a(I4544
I35744
tp46
a(I4544
I35745
tp47
a(I4544
I35746
tp48
a(I4544
I35747
tp49
a(I4544
I35748
tp50
a(I4544
I35749
tp51
a(I4544
I35750
tp52
a(I4544
I35751
tp53
a(I4544
I35752
tp54
a(I5306
I17483
tp55
a(I5306
I38448
tp56
a(I5680
I19929
tp57
a(I5680
I20833
tp58
a(I5680
I39308
tp59
a(I5773
I36441
tp60
a(I5773
I71399
tp61
a(I6159
I15528
tp62
a(I6159
I36963
tp63
a(I6159
I40628
tp64
a(I6159
I40629
tp65
a(I6159
I40630
tp66
a(I6159
I40631
tp67
a(I6159
I40632
tp68
a(I6159
I40633
tp69
a(I6159
I40634
tp70
a(I6523
I790
tp71
a(I6523
I16892
tp72
a(I6523
I34335
tp73
a(I6523
I34337
tp74
a(I6523
I37767
tp75
a(I6523
I40278
tp76
a(I6523
I41238
tp77
a(I6523
I41275
tp78
a(I6523
I41276
tp79
a(I6523
I41277
tp80
a(I6523
I41278
tp81
a(I6523
I41279
tp82
a(I6523
I41280
tp83
a(I6523
I41281
tp84
a(I6523
I41282
tp85
a(I6946
I22123
tp86
a(I6946
I22359
tp87
a(I6946
I22364
tp88
a(I6946
I42534
tp89
a(I7113
I36440
tp90
a(I7609
I20833
tp91
a(I7609
I26210
tp92
a(I8714
I4544
tp93
a(I8714
I26117
tp94
a(I8714
I45923
tp95
a(I8714
I45924
tp96
a(I8714
I45925
tp97
a(I8714
I45926
tp98
a(I8714
I45927
tp99
a(I8714
I45928
tp100
a(I8714
I45929
tp101
a(I8714
I45930
tp102
a(I8714
I45931
tp103
a(I8714
I45932
tp104
a(I8780
I33835
tp105
a(I8866
I33771
tp106
a(I9086
I41858
tp107
a(I9086
I41874
tp108
a(I9086
I46572
tp109
a(I9086
I46573
tp110
a(I9503
I47151
tp111
a(I10493
I21570
tp112
a(I10493
I25573
tp113
a(I10760
I726
tp114
a(I10760
I15335
tp115
a(I10760
I22123
tp116
a(I10760
I41764
tp117
a(I10992
I906
tp118
a(I10992
I13625
tp119
a(I10992
I48950
tp120
a(I11744
I49856
tp121
a(I11744
I49876
tp122
a(I11744
I49877
tp123
a(I11744
I49878
tp124
a(I11744
I49879
tp125
a(I12022
I71418
tp126
a(I12238
I12262
tp127
a(I12238
I12279
tp128
a(I12276
I3922
tp129
a(I12276
I12238
tp130
a(I12276
I50492
tp131
a(I12276
I71423
tp132
a(I12498
I14558
tp133
a(I12498
I32424
tp134
a(I12498
I50685
tp135
a(I12498
I50686
tp136
a(I12498
I50687
tp137
a(I12498
I50688
tp138
a(I12498
I50689
tp139
a(I12498
I50690
tp140
a(I13101
I726
tp141
a(I13101
I21341
tp142
a(I13562
I4069
tp143
a(I13562
I26117
tp144
a(I13591
I699
tp145
a(I13591
I17230
tp146
a(I13592
I699
tp147
a(I13625
I699
tp148
a(I13625
I726
tp149
a(I14131
I19473
tp150
a(I14558
I39246
tp151
a(I14558
I41711
tp152
a(I14558
I50689
tp153
a(I14558
I51640
tp154
a(I14558
I52684
tp155
a(I14558
I52728
tp156
a(I14558
I52769
tp157
a(I14577
I30818
tp158
a(I14577
I31054
tp159
a(I15071
I21941
tp160
a(I15071
I38823
tp161
a(I15071
I45361
tp162
a(I15071
I53250
tp163
a(I15071
I53251
tp164
a(I15071
I53252
tp165
a(I15071
I53253
tp166
a(I15335
I10760
tp167
a(I15528
I40632
tp168
a(I15528
I53570
tp169
a(I15528
I53571
tp170
a(I15827
I906
tp171
a(I15829
I906
tp172
a(I15829
I19929
tp173
a(I15957
I1028
tp174
a(I15957
I48926
tp175
a(I15957
I50548
tp176
a(I16199
I21570
tp177
a(I16199
I27470
tp178
a(I16199
I37375
tp179
a(I16199
I51095
tp180
a(I16199
I52590
tp181
a(I16199
I54180
tp182
a(I16199
I54181
tp183
a(I16199
I54182
tp184
a(I16199
I54183
tp185
a(I16199
I54184
tp186
a(I16199
I54185
tp187
a(I16199
I54186
tp188
a(I16199
I54187
tp189
a(I16199
I54188
tp190
a(I16199
I54189
tp191
a(I16379
I35488
tp192
a(I16379
I46934
tp193
a(I16379
I54443
tp194
a(I16388
I19693
tp195
a(I16388
I54456
tp196
a(I16388
I54457
tp197
a(I16443
I19473
tp198
a(I16443
I53253
tp199
a(I16443
I54490
tp200
a(I16443
I54491
tp201
a(I16892
I26605
tp202
a(I17230
I8866
tp203
a(I17230
I13591
tp204
a(I17230
I52026
tp205
a(I17483
I5306
tp206
a(I17483
I31050
tp207
a(I17984
I4544
tp208
a(I17984
I55522
tp209
a(I17984
I55523
tp210
a(I18345
I15335
tp211
a(I18345
I25828
tp212
a(I18345
I42049
tp213
a(I18345
I55739
tp214
a(I18345
I55740
tp215
a(I19434
I21668
tp216
a(I19434
I29462
tp217
a(I19434
I56745
tp218
a(I19473
I14131
tp219
a(I19473
I54491
tp220
a(I19473
I56759
tp221
a(I19473
I56760
tp222
a(I19580
I33595
tp223
a(I19580
I38581
tp224
a(I19580
I53574
tp225
a(I19580
I54122
tp226
a(I19580
I54133
tp227
a(I19580
I56851
tp228
a(I19693
I16388
tp229
a(I19693
I41494
tp230
a(I19693
I55251
tp231
a(I19693
I56953
tp232
a(I19693
I56954
tp233
a(I19929
I5680
tp234
a(I19929
I15829
tp235
a(I20295
I1490
tp236
a(I20299
I790
tp237
a(I20833
I5680
tp238
a(I21341
I726
tp239
a(I21341
I13101
tp240
a(I21341
I24608
tp241
a(I21388
I18345
tp242
a(I21388
I21941
tp243
a(I21570
I10493
tp244
a(I21570
I16199
tp245
a(I21570
I52684
tp246
a(I21668
I19434
tp247
a(I21668
I23525
tp248
a(I21668
I33098
tp249
a(I21668
I55796
tp250
a(I21668
I55799
tp251
a(I21668
I55800
tp252
a(I21668
I55801
tp253
a(I21668
I58498
tp254
a(I21941
I15071
tp255
a(I21941
I21388
tp256
a(I22123
I6946
tp257
a(I22359
I6946
tp258
a(I22359
I24232
tp259
a(I22359
I42548
tp260
a(I22359
I58978
tp261
a(I22359
I58979
tp262
a(I22359
I58980
tp263
a(I22359
I58981
tp264
a(I22359
I58982
tp265
a(I22359
I58983
tp266
a(I22359
I58984
tp267
a(I22359
I58985
tp268
a(I22359
I58986
tp269
a(I22412
I23568
tp270
a(I22412
I59016
tp271
a(I22412
I59017
tp272
a(I22815
I15957
tp273
a(I23465
I56257
tp274
a(I23465
I59671
tp275
a(I23568
I22412
tp276
a(I23568
I28282
tp277
a(I23568
I59740
tp278
a(I23568
I59741
tp279
a(I23568
I59742
tp280
a(I24232
I22359
tp281
a(I24232
I31054
tp282
a(I24232
I60209
tp283
a(I24608
I49856
tp284
a(I24608
I60448
tp285
a(I24726
I54638
tp286
a(I25573
I10493
tp287
a(I25573
I71402
tp288
a(I25860
I40082
tp289
a(I25997
I790
tp290
a(I25997
I49089
tp291
a(I25997
I61126
tp292
a(I25997
I61127
tp293
a(I25997
I61128
tp294
a(I25997
I61129
tp295
a(I26117
I8714
tp296
a(I26210
I7609
tp297
a(I26210
I36963
tp298
a(I26605
I16892
tp299
a(I26605
I41281
tp300
a(I26691
I22815
tp301
a(I27058
I6523
tp302
a(I27058
I34337
tp303
a(I27470
I4537
tp304
a(I27470
I16199
tp305
a(I27470
I48270
tp306
a(I27570
I46572
tp307
a(I27570
I54456
tp308
a(I27570
I61702
tp309
a(I27570
I61703
tp310
a(I28080
I37767
tp311
a(I28282
I35505
tp312
a(I28282
I59742
tp313
a(I28282
I61991
tp314
a(I28337
I17984
tp315
a(I28337
I31050
tp316
a(I28337
I36858
tp317
a(I29462
I39944
tp318
a(I30513
I71423
tp319
a(I30818
I37565
tp320
a(I31050
I17483
tp321
a(I31050
I28337
tp322
a(I31050
I62998
tp323
a(I31054
I14577
tp324
a(I32424
I12498
tp325
a(I32424
I14558
tp326
a(I32424
I47100
tp327
a(I32424
I50689
tp328
a(I32424
I52684
tp329
a(I32424
I52772
tp330
a(I32424
I56833
tp331
a(I32424
I63172
tp332
a(I32424
I63173
tp333
a(I32424
I63175
tp334
a(I33047
I3922
tp335
a(I33047
I16379
tp336
a(I33049
I3922
tp337
a(I33051
I3922
tp338
a(I33055
I3922
tp339
a(I33056
I3922
tp340
a(I33057
I3922
tp341
a(I33098
I21668
tp342
a(I33098
I45156
tp343
a(I33595
I19580
tp344
a(I33595
I38581
tp345
a(I33595
I54124
tp346
a(I33595
I63941
tp347
a(I33771
I4069
tp348
a(I33835
I8780
tp349
a(I33835
I16892
tp350
a(I34335
I26691
tp351
a(I34337
I6523
tp352
a(I34337
I27058
tp353
a(I35364
I64619
tp354
a(I35364
I71530
tp355
a(I35482
I4482
tp356
a(I35482
I9503
tp357
a(I35488
I4482
tp358
a(I35488
I16379
tp359
a(I35505
I28282
tp360
a(I35505
I47151
tp361
a(I35739
I7113
tp362
a(I35740
I4544
tp363
a(I35745
I4544
tp364
a(I35752
I4544
tp365
a(I35752
I31111
tp366
a(I35752
I35739
tp367
a(I35752
I44980
tp368
a(I36440
I36441
tp369
a(I36441
I5773
tp370
a(I36441
I36440
tp371
a(I36858
I28337
tp372
a(I36963
I6159
tp373
a(I36963
I26210
tp374
a(I36963
I65004
tp375
a(I36963
I65005
tp376
a(I36963
I65006
tp377
a(I36963
I65007
tp378
a(I37375
I16199
tp379
a(I37539
I49089
tp380
a(I37539
I54821
tp381
a(I37563
I23465
tp382
a(I37563
I65191
tp383
a(I37565
I37563
tp384
a(I37767
I28080
tp385
a(I37767
I37968
tp386
a(I38448
I5306
tp387
a(I38581
I19580
tp388
a(I38581
I33595
tp389
a(I38581
I65442
tp390
a(I38823
I15071
tp391
a(I38823
I53250
tp392
a(I38823
I53251
tp393
a(I39246
I14558
tp394
a(I39246
I32424
tp395
a(I39308
I5680
tp396
a(I39944
I37539
tp397
a(I39944
I65840
tp398
a(I40082
I25860
tp399
a(I40629
I6159
tp400
a(I40630
I6159
tp401
a(I40631
I6159
tp402
a(I40632
I6159
tp403
a(I40632
I15528
tp404
a(I40634
I6159
tp405
a(I41076
I21668
tp406
a(I41076
I55799
tp407
a(I41277
I6523
tp408
a(I41279
I6523
tp409
a(I41281
I6523
tp410
a(I41281
I16892
tp411
a(I41281
I26605
tp412
a(I41281
I37767
tp413
a(I41494
I19693
tp414
a(I41711
I14558
tp415
a(I41764
I10760
tp416
a(I41858
I8780
tp417
a(I41858
I9086
tp418
a(I41858
I66346
tp419
a(I41874
I9086
tp420
a(I41896
I6946
tp421
a(I41896
I42548
tp422
a(I42049
I18345
tp423
a(I42548
I6946
tp424
a(I42548
I22359
tp425
a(I42548
I41896
tp426
a(I42548
I66508
tp427
a(I42622
I14131
tp428
a(I42622
I64619
tp429
a(I44980
I35739
tp430
a(I44980
I35752
tp431
a(I44980
I41552
tp432
a(I45156
I33098
tp433
a(I45361
I67193
tp434
a(I45923
I8714
tp435
a(I45923
I71544
tp436
a(I45924
I8714
tp437
a(I45924
I45928
tp438
a(I45928
I45924
tp439
a(I45929
I8714
tp440
a(I45931
I8714
tp441
a(I46572
I27570
tp442
a(I46572
I46574
tp443
a(I46572
I53681
tp444
a(I46572
I53682
tp445
a(I46572
I55666
tp446
a(I46574
I9086
tp447
a(I46934
I16379
tp448
a(I47098
I52684
tp449
a(I47100
I9477
tp450
a(I47100
I14558
tp451
a(I47100
I32424
tp452
a(I47100
I50689
tp453
a(I47100
I52684
tp454
a(I47100
I52772
tp455
a(I47100
I56833
tp456
a(I47100
I67512
tp457
a(I47151
I9503
tp458
a(I47151
I35505
tp459
a(I48005
I48714
tp460
a(I48005
I71418
tp461
a(I48714
I20295
tp462
a(I48714
I48005
tp463
a(I49089
I25997
tp464
a(I49089
I37539
tp465
a(I49089
I61126
tp466
a(I49856
I11744
tp467
a(I49876
I11744
tp468
a(I49876
I12022
tp469
a(I49876
I68091
tp470
a(I49876
I68092
tp471
a(I49877
I11744
tp472
a(I49878
I11744
tp473
a(I49879
I11744
tp474
a(I50492
I12276
tp475
a(I50492
I30513
tp476
a(I50492
I68241
tp477
a(I50492
I71423
tp478
a(I50685
I24726
tp479
a(I50686
I12498
tp480
a(I50686
I68260
tp481
a(I50690
I12498
tp482
a(I51095
I16199
tp483
a(I51640
I14558
tp484
a(I51640
I23465
tp485
a(I52026
I13591
tp486
a(I52590
I16199
tp487
a(I52590
I68590
tp488
a(I52684
I47098
tp489
a(I52690
I14558
tp490
a(I52690
I56257
tp491
a(I52690
I60676
tp492
a(I52728
I14558
tp493
a(I52769
I14558
tp494
a(I52772
I14558
tp495
a(I52772
I32424
tp496
a(I52772
I50689
tp497
a(I52772
I52684
tp498
a(I52772
I63172
tp499
a(I52772
I63173
tp500
a(I53250
I15071
tp501
a(I53250
I38823
tp502
a(I53250
I53251
tp503
a(I53250
I68710
tp504
a(I53250
I68711
tp505
a(I53251
I15071
tp506
a(I53251
I53250
tp507
a(I53253
I15071
tp508
a(I53253
I16443
tp509
a(I53253
I53251
tp510
a(I53253
I68713
tp511
a(I53570
I15528
tp512
a(I53571
I15528
tp513
a(I53574
I15528
tp514
a(I53681
I68780
tp515
a(I53682
I46572
tp516
a(I54122
I54126
tp517
a(I54122
I54128
tp518
a(I54122
I54130
tp519
a(I54122
I54131
tp520
a(I54122
I54133
tp521
a(I54124
I33595
tp522
a(I54126
I54122
tp523
a(I54126
I54125
tp524
a(I54133
I19580
tp525
a(I54133
I54122
tp526
a(I54180
I16199
tp527
a(I54181
I16199
tp528
a(I54182
I16199
tp529
a(I54183
I16199
tp530
a(I54184
I16199
tp531
a(I54185
I16199
tp532
a(I54186
I16199
tp533
a(I54186
I68863
tp534
a(I54187
I16199
tp535
a(I54188
I16199
tp536
a(I54188
I54185
tp537
a(I54189
I16199
tp538
a(I54456
I16388
tp539
a(I54456
I27570
tp540
a(I54456
I68904
tp541
a(I54457
I68905
tp542
a(I54491
I16443
tp543
a(I54491
I19473
tp544
a(I54638
I24726
tp545
a(I54638
I55251
tp546
a(I54638
I68934
tp547
a(I54638
I68935
tp548
a(I54821
I25860
tp549
a(I55251
I19693
tp550
a(I55251
I54638
tp551
a(I55522
I17984
tp552
a(I55523
I17984
tp553
a(I55666
I46572
tp554
a(I55796
I21668
tp555
a(I55796
I67563
tp556
a(I55799
I21668
tp557
a(I55799
I41076
tp558
a(I55801
I21668
tp559
a(I55801
I55799
tp560
a(I56257
I52690
tp561
a(I56833
I32424
tp562
a(I56833
I67512
tp563
a(I56851
I19580
tp564
a(I56953
I19693
tp565
a(I56954
I19693
tp566
a(I58980
I22359
tp567
a(I58982
I22359
tp568
a(I58983
I22359
tp569
a(I58984
I22359
tp570
a(I58985
I22359
tp571
a(I58986
I22359
tp572
a(I59016
I22412
tp573
a(I59016
I33595
tp574
a(I59017
I22412
tp575
a(I59741
I23568
tp576
a(I59742
I23568
tp577
a(I59742
I28282
tp578
a(I59742
I61991
tp579
a(I60448
I24608
tp580
a(I61126
I25997
tp581
a(I61126
I49089
tp582
a(I61127
I35364
tp583
a(I61127
I71530
tp584
a(I61991
I28282
tp585
a(I61991
I70039
tp586
a(I63172
I32424
tp587
a(I63941
I33595
tp588
a(I64619
I35364
tp589
a(I64619
I42622
tp590
a(I65005
I36963
tp591
a(I65191
I37563
tp592
a(I66346
I41858
tp593
a(I67142
I45156
tp594
a(I67142
I68850
tp595
a(I67142
I71544
tp596
a(I67512
I47100
tp597
a(I67512
I56833
tp598
a(I68091
I49876
tp599
a(I68241
I50492
tp600
a(I68241
I71423
tp601
a(I68260
I50686
tp602
a(I68710
I53250
tp603
a(I68711
I53250
tp604
a(I68713
I53253
tp605
a(I68850
I67142
tp606
a(I68850
I71544
tp607
a(I68904
I54456
tp608
a(I68934
I54638
tp609
a(I68935
I54638
tp610
a(I71399
I5773
tp611
a(I71399
I71403
tp612
a(I71399
I71423
tp613
a(I71399
I71601
tp614
a(I71399
I71602
tp615
a(I71399
I71603
tp616
a(I71399
I71604
tp617
a(I71399
I71605
tp618
a(I71399
I71606
tp619
a(I71399
I71607
tp620
a(I71399
I71608
tp621
a(I71399
I71609
tp622
a(I71399
I71610
tp623
a(I71399
I71611
tp624
a(I71399
I71612
tp625
a(I71399
I71613
tp626
a(I71399
I71614
tp627
a(I71399
I71615
tp628
a(I71399
I71616
tp629
a(I71399
I71617
tp630
a(I71399
I71618
tp631
a(I71399
I71619
tp632
a(I71399
I71620
tp633
a(I71399
I71621
tp634
a(I71399
I71622
tp635
a(I71399
I71623
tp636
a(I71399
I71624
tp637
a(I71399
I71625
tp638
a(I71399
I71626
tp639
a(I71399
I71627
tp640
a(I71399
I71628
tp641
a(I71399
I71629
tp642
a(I71399
I71630
tp643
a(I71399
I71631
tp644
a(I71399
I71632
tp645
a(I71399
I71633
tp646
a(I71399
I71634
tp647
a(I71399
I72359
tp648
a(I71399
I72375
tp649
a(I71399
I73184
tp650
a(I71399
I74560
tp651
a(I71399
I74580
tp652
a(I71399
I75143
tp653
a(I71399
I75144
tp654
a(I71399
I75145
tp655
a(I71399
I75146
tp656
a(I71399
I75147
tp657
a(I71399
I75148
tp658
a(I71399
I75149
tp659
a(I71399
I75150
tp660
a(I71399
I75151
tp661
a(I71399
I75152
tp662
a(I71399
I75153
tp663
a(I71399
I75154
tp664
a(I71399
I75155
tp665
a(I71399
I75156
tp666
a(I71399
I75157
tp667
a(I71399
I75158
tp668
a(I71399
I75159
tp669
a(I71399
I75160
tp670
a(I71399
I75161
tp671
a(I71399
I75162
tp672
a(I71399
I75163
tp673
a(I71399
I75164
tp674
a(I71399
I75165
tp675
a(I71399
I75166
tp676
a(I71399
I75167
tp677
a(I71399
I75168
tp678
a(I71399
I75169
tp679
a(I71399
I75170
tp680
a(I71399
I75171
tp681
a(I71399
I75172
tp682
a(I71399
I75173
tp683
a(I71399
I75174
tp684
a(I71399
I75175
tp685
a(I71399
I75176
tp686
a(I71399
I75177
tp687
a(I71399
I75178
tp688
a(I71399
I75179
tp689
a(I71399
I75180
tp690
a(I71399
I75181
tp691
a(I71399
I75182
tp692
a(I71399
I75183
tp693
a(I71399
I75184
tp694
a(I71399
I75185
tp695
a(I71399
I75186
tp696
a(I71399
I75187
tp697
a(I71399
I75188
tp698
a(I71399
I75189
tp699
a(I71399
I75190
tp700
a(I71399
I75191
tp701
a(I71399
I75192
tp702
a(I71399
I75193
tp703
a(I71399
I75194
tp704
a(I71399
I75195
tp705
a(I71399
I75196
tp706
a(I71399
I75197
tp707
a(I71399
I75198
tp708
a(I71399
I75199
tp709
a(I71399
I75200
tp710
a(I71399
I75201
tp711
a(I71399
I75202
tp712
a(I71399
I75203
tp713
a(I71399
I75204
tp714
a(I71399
I75205
tp715
a(I71399
I75206
tp716
a(I71399
I75207
tp717
a(I71399
I75208
tp718
a(I71399
I75209
tp719
a(I71399
I75210
tp720
a(I71399
I75211
tp721
a(I71399
I75212
tp722
a(I71399
I75213
tp723
a(I71399
I75214
tp724
a(I71399
I75215
tp725
a(I71399
I75216
tp726
a(I71399
I75217
tp727
a(I71399
I75218
tp728
a(I71399
I75219
tp729
a(I71399
I75220
tp730
a(I71399
I75221
tp731
a(I71399
I75222
tp732
a(I71399
I75223
tp733
a(I71399
I75224
tp734
a(I71399
I75225
tp735
a(I71399
I75226
tp736
a(I71399
I75227
tp737
a(I71399
I75228
tp738
a(I71399
I75229
tp739
a(I71399
I75230
tp740
a(I71399
I75231
tp741
a(I71399
I75232
tp742
a(I71399
I75233
tp743
a(I71399
I75842
tp744
a(I71402
I790
tp745
a(I71402
I1028
tp746
a(I71402
I25573
tp747
a(I71403
I790
tp748
a(I71403
I38448
tp749
a(I71403
I71655
tp750
a(I71418
I12022
tp751
a(I71418
I48005
tp752
a(I71423
I12276
tp753
a(I71423
I30513
tp754
a(I71423
I50492
tp755
a(I71423
I68241
tp756
a(I71530
I35364
tp757
a(I71530
I61127
tp758
a(I71544
I67142
tp759
a(I71544
I68850
tp760
a(I71544
I71714
tp761
a(I71613
I71399
tp762
a(I71613
I71731
tp763
a(I71613
I71732
tp764
a(I71632
I71399
tp765
a(I71633
I71399
tp766
a(I71634
I71399
tp767
a(I71655
I71403
tp768
a(I71714
I71544
tp769
a(I71731
I71613
tp770
a(I71732
I71613
tp771
a(I75186
I71399
tp772
a(I75233
I71399
tp773
a(I75842
I75870
tp774
a(I75842
I75871
tp775
a(I75871
I75842
tp776
a(I75871
I75875
tp777
a(I75871
I75876
tp778
a(I75871
I75877
tp779
a(I75871
I75878
tp780
a(I75876
I75871
tp781
a(I75876
I75877
tp782
a(I75877
I75871
tp783
a(I75877
I75876
tp784
a(I75878
I75871
tp785
aa.